target datalayout = "e-m:e-p270:32:32-p271:32:32-p272:64:64-i64:64-i128:128-f80:128-n8:16:32:64-S128"
target triple = "x86_64-pc-linux-gnu"

%struct.IDAMemRec = type { ptr, double, ptr, ptr, i32, double, double, ptr, i32, i32, ptr, ptr, i32, i32, i32, ptr, ptr, i32, i32, double, double, ptr, i32, i32, i32, i32, ptr, ptr, i32, ptr, ptr, ptr, i32, double, i32, i32, double, ptr, ptr, ptr, i32, ptr, ptr, i32, i32, i32, double, ptr, ptr, ptr, [6 x ptr], [6 x double], [6 x double], [6 x double], [6 x double], [6 x double], ptr, ptr, ptr, ptr, ptr, ptr, ptr, ptr, ptr, ptr, ptr, ptr, ptr, ptr, ptr, ptr, ptr, [6 x ptr], ptr, ptr, ptr, ptr, [6 x ptr], ptr, ptr, ptr, ptr, ptr, ptr, ptr, ptr, ptr, ptr, ptr, ptr, ptr, ptr, ptr, ptr, [6 x ptr], ptr, ptr, ptr, ptr, ptr, double, ptr, ptr, i32, i32, i32, i32, i32, i32, i32, i32, double, double, double, i32, double, i32, i32, i32, i32, i32, double, double, double, double, double, double, double, double, double, double, double, double, double, double, double, double, double, i32, i32, i32, i32, i64, double, double, double, double, double, double, double, double, double, i64, i64, i64, i64, i64, i64, i64, i64, i64, i64, i64, i64, i64, i64, i64, i64, i64, i64, i64, i64, i64, i64, i64, i64, i64, i64, double, i32, i32, i32, i32, i32, i32, i32, i32, i32, i32, i32, i32, i32, ptr, i32, ptr, i32, ptr, i32, ptr, ptr, ptr, ptr, ptr, ptr, i32, i32, ptr, ptr, ptr, ptr, ptr, ptr, ptr, double, i32, i32, ptr, i32, ptr, ptr, double, double, double, ptr, ptr, ptr, double, double, i32, i32, i64, ptr, i32, ptr, [5 x double], ptr, ptr, i32, ptr, i32 }

@.str = private unnamed_addr constant [114 x i8] c"generated/home/dtcxzyw/WorkSpace/Projects/compilers/llvm-opt-benchmark/bench/sundials/sundials/src/idas/idas_io.c\00", align 1
@.str.1 = private unnamed_addr constant [24 x i8] c"ida_mem = NULL illegal.\00", align 1
@__func__.IDASetEtaFixedStepBounds = private unnamed_addr constant [25 x i8] c"IDASetEtaFixedStepBounds\00", align 1

; Function Attrs: nounwind uwtable
define i32 @IDASetEtaFixedStepBounds(ptr noundef %0, double noundef %1, double noundef %2) #0 {
  %4 = alloca i32, align 4
  %5 = alloca ptr, align 8
  %6 = alloca double, align 8
  %7 = alloca double, align 8
  %8 = alloca ptr, align 8
  store ptr %0, ptr %5, align 8
  store double %1, ptr %6, align 8
  store double %2, ptr %7, align 8
  %9 = load ptr, ptr %5, align 8
  %10 = icmp eq ptr %9, null
  br i1 %10, label %11, label %12

11:                                               ; preds = %3
  call void (ptr, i32, i32, ptr, ptr, ptr, ...) @IDAProcessError(ptr noundef null, i32 noundef -20, i32 noundef 83, ptr noundef @__func__.IDASetEtaFixedStepBounds, ptr noundef @.str, ptr noundef @.str.1)
  store i32 -20, ptr %4, align 4
  br label %37

12:                                               ; preds = %3
  %13 = load ptr, ptr %5, align 8
  store ptr %13, ptr %8, align 8
  %14 = load double, ptr %6, align 8
  %15 = fcmp oge double %14, 0.000000e+00
  br i1 %15, label %16, label %23

16:                                               ; preds = %12
  %17 = load double, ptr %6, align 8
  %18 = fcmp ole double %17, 1.000000e+00
  br i1 %18, label %19, label %23

19:                                               ; preds = %16
  %20 = load double, ptr %6, align 8
  %21 = load ptr, ptr %8, align 8
  %22 = getelementptr inbounds %struct.IDAMemRec, ptr %21, i32 0, i32 147
  store double %20, ptr %22, align 8
  br label %26

23:                                               ; preds = %16, %12
  %24 = load ptr, ptr %8, align 8
  %25 = getelementptr inbounds %struct.IDAMemRec, ptr %24, i32 0, i32 147
  store double 1.000000e+00, ptr %25, align 8
  br label %26

26:                                               ; preds = %23, %19
  %27 = load double, ptr %7, align 8
  %28 = fcmp oge double %27, 1.000000e+00
  br i1 %28, label %29, label %33

29:                                               ; preds = %26
  %30 = load double, ptr %7, align 8
  %31 = load ptr, ptr %8, align 8
  %32 = getelementptr inbounds %struct.IDAMemRec, ptr %31, i32 0, i32 146
  store double %30, ptr %32, align 8
  br label %36

33:                                               ; preds = %26
  %34 = load ptr, ptr %8, align 8
  %35 = getelementptr inbounds %struct.IDAMemRec, ptr %34, i32 0, i32 146
  store double 2.000000e+00, ptr %35, align 8
  br label %36

36:                                               ; preds = %33, %29
  store i32 0, ptr %4, align 4
  br label %37

37:                                               ; preds = %36, %11
  %38 = load i32, ptr %4, align 4
  ret i32 %38
}