; Function Attrs: nounwind uwtable
define range(i32 -20, 1) i32 @IDASetEtaFixedStepBounds(ptr noundef writeonly %0, double noundef %1, double noundef %2) local_unnamed_addr #0 {
  %4 = icmp eq ptr %0, null
  br i1 %4, label %5, label %6

5:                                                ; preds = %3
  tail call void (ptr, i32, i32, ptr, ptr, ptr, ...) @IDAProcessError(ptr noundef null, i32 noundef -20, i32 noundef 83, ptr noundef nonnull @__func__.IDASetEtaFixedStepBounds, ptr noundef nonnull @.str, ptr noundef nonnull @.str.1) #9
  br label %14

6:                                                ; preds = %3
  %7 = fcmp oge double %1, 0.000000e+00
  %8 = fcmp ole double %1, 1.000000e+00
  %or.cond = and i1 %7, %8
  %.sink = select i1 %or.cond, double %1, double 1.000000e+00
  %9 = getelementptr inbounds nuw i8, ptr %0, i64 1416
  store double %.sink, ptr %9, align 8
  %10 = fcmp ult double %2, 1.000000e+00
  %11 = getelementptr inbounds nuw i8, ptr %0, i64 1408
  br i1 %10, label %13, label %12

12:                                               ; preds = %6
  store double %2, ptr %11, align 8
  br label %14

13:                                               ; preds = %6
  store double 2.000000e+00, ptr %11, align 8
  br label %14

14:                                               ; preds = %12, %13, %5
  %.0 = phi i32 [ -20, %5 ], [ 0, %13 ], [ 0, %12 ]
  ret i32 %.0
}